target datalayout = "e-m:e-p270:32:32-p271:32:32-p272:64:64-i64:64-i128:128-f80:128-n8:16:32:64-S128"
target triple = "x86_64-pc-linux-gnu"

%struct.Object = type { ptr, ptr, ptr, i32, ptr }
%struct.QTailQLink = type { ptr, ptr }
%struct.AHCIDevice = type { %struct.IDEDMA, %struct.IDEBus, i32, i32, i32, %struct.AHCIPortRegs, ptr, ptr, ptr, ptr, i8, i32, i8, ptr, [32 x %struct.NCQTransferState], %struct.MemReentrancyGuard }
%struct.IDEDMA = type { ptr, %struct.QEMUIOVector, ptr }
%struct.QEMUIOVector = type { ptr, i32, %union.anon.3 }
%union.anon.3 = type { %struct.anon.4 }
%struct.anon.4 = type { i32, %struct.iovec }
%struct.iovec = type { ptr, i64 }
%struct.IDEBus = type { %struct.BusState, ptr, ptr, [2 x %struct.IDEState], ptr, i32, i32, ptr, i8, i8, ptr, i32, i8, i64, i32, %struct.PortioList, %struct.PortioList, ptr }
%struct.BusState = type { %struct.Object, ptr, ptr, ptr, i32, i8, i8, i32, %union.BusChildHead, %struct.BusStateEntry, %struct.ResettableState }
%union.BusChildHead = type { %struct.QTailQLink }
%struct.BusStateEntry = type { ptr, ptr }
%struct.ResettableState = type { i32, i8, i8 }
%struct.IDEState = type { ptr, i8, i32, i32, i32, i32, i32, i32, i32, i64, i32, i32, [512 x i8], i32, [21 x i8], [41 x i8], i8, i64, i8, i8, i32, i8, i8, i8, i8, i8, i8, i8, i8, i8, i8, i8, i8, i8, ptr, [9 x i8], %struct.unreported_events, i8, i8, i8, i8, i8, i32, i32, i32, i32, i32, i32, %struct.BlockAcctCookie, ptr, %struct.QEMUIOVector, %struct.anon.6, i64, i32, %struct.QEMUSGList, i32, ptr, ptr, ptr, ptr, i32, i32, i32, i8, ptr, i32, i8, i32, ptr, i32, i32, i8, i8, i32, i8, ptr, i32 }
%struct.unreported_events = type { i8, i8 }
%struct.BlockAcctCookie = type { i64, i64, i32 }
%struct.anon.6 = type { ptr }
%struct.QEMUSGList = type { ptr, i32, i32, i64, ptr, ptr }
%struct.PortioList = type { ptr, ptr, ptr, i32, i32, ptr, ptr, ptr, i8 }
%struct.AHCIPortRegs = type { i32, i32, i32, i32, i32, i32, i32, i32, i32, i32, i32, i32, i32, i32, i32, i32 }
%struct.NCQTransferState = type { ptr, ptr, ptr, %struct.QEMUSGList, %struct.BlockAcctCookie, i32, i64, i8, i8, i8, i8, i8 }
%struct.MemReentrancyGuard = type { i8 }
%struct.timeval = type { i64, i64 }

@trace_events_enabled_count = external global i32, align 4
@message_with_timestamp = external global i8, align 1
@qemu_loglevel = external global i32, align 4
@_TRACE_AHCI_DMA_PREPARE_BUF_FAIL_DSTATE = external global i16, align 2
@.str.182 = private unnamed_addr constant [79 x i8] c"%d@%zu.%06zu:ahci_dma_prepare_buf_fail ahci(%p)[%d]: sglist population failed\0A\00", align 1
@.str.183 = private unnamed_addr constant [66 x i8] c"ahci_dma_prepare_buf_fail ahci(%p)[%d]: sglist population failed\0A\00", align 1
@_TRACE_AHCI_DMA_PREPARE_BUF_DSTATE = external global i16, align 2
@.str.184 = private unnamed_addr constant [82 x i8] c"%d@%zu.%06zu:ahci_dma_prepare_buf ahci(%p)[%d]: prepare buf limit=%d prepared=%d\0A\00", align 1
@.str.185 = private unnamed_addr constant [69 x i8] c"ahci_dma_prepare_buf ahci(%p)[%d]: prepare buf limit=%d prepared=%d\0A\00", align 1

; Function Attrs: inlinehint nounwind sspstrong uwtable
define internal zeroext i1 @qemu_loglevel_mask(i32 noundef %0) #7 {
  %2 = alloca i32, align 4
  store i32 %0, ptr %2, align 4
  %3 = load i32, ptr @qemu_loglevel, align 4
  %4 = load i32, ptr %2, align 4
  %5 = and i32 %3, %4
  %6 = icmp ne i32 %5, 0
  ret i1 %6
}

; Function Attrs: inlinehint nounwind sspstrong uwtable
define internal void @_nocheck__trace_ahci_dma_prepare_buf(ptr noundef %0, i32 noundef %1, i32 noundef %2, i32 noundef %3) #7 {
  %5 = alloca ptr, align 8
  %6 = alloca i32, align 4
  %7 = alloca i32, align 4
  %8 = alloca i32, align 4
  %9 = alloca %struct.timeval, align 8
  store ptr %0, ptr %5, align 8
  store i32 %1, ptr %6, align 4
  store i32 %2, ptr %7, align 4
  store i32 %3, ptr %8, align 4
  %10 = load i32, ptr @trace_events_enabled_count, align 4
  %11 = icmp ne i32 %10, 0
  %12 = xor i1 %11, true
  %13 = xor i1 %12, true
  %14 = zext i1 %13 to i32
  %15 = sext i32 %14 to i64
  %16 = call i64 @llvm.expect.i64(i64 %15, i64 0)
  %17 = icmp ne i64 %16, 0
  br i1 %17, label %18, label %44

18:                                               ; preds = %4
  %19 = load i16, ptr @_TRACE_AHCI_DMA_PREPARE_BUF_DSTATE, align 2
  %20 = zext i16 %19 to i32
  %21 = icmp ne i32 %20, 0
  br i1 %21, label %22, label %44

22:                                               ; preds = %18
  %23 = call zeroext i1 @qemu_loglevel_mask(i32 noundef 32768)
  br i1 %23, label %24, label %44

24:                                               ; preds = %22
  %25 = load i8, ptr @message_with_timestamp, align 1, !range !11, !noundef !12
  %26 = trunc i8 %25 to i1
  br i1 %26, label %27, label %38

27:                                               ; preds = %24
  call void @llvm.lifetime.start.p0(i64 16, ptr %9) #15
  call void @llvm.memset.p0.i64(ptr align 8 %9, i8 0, i64 16, i1 false), !annotation !4
  %28 = call i32 @gettimeofday(ptr noundef %9, ptr noundef null) #15
  %29 = call i32 @qemu_get_thread_id()
  %30 = getelementptr inbounds nuw %struct.timeval, ptr %9, i32 0, i32 0
  %31 = load i64, ptr %30, align 8
  %32 = getelementptr inbounds nuw %struct.timeval, ptr %9, i32 0, i32 1
  %33 = load i64, ptr %32, align 8
  %34 = load ptr, ptr %5, align 8
  %35 = load i32, ptr %6, align 4
  %36 = load i32, ptr %7, align 4
  %37 = load i32, ptr %8, align 4
  call void (ptr, ...) @qemu_log(ptr noundef @.str.184, i32 noundef %29, i64 noundef %31, i64 noundef %33, ptr noundef %34, i32 noundef %35, i32 noundef %36, i32 noundef %37)
  call void @llvm.lifetime.end.p0(i64 16, ptr %9) #15
  br label %43

38:                                               ; preds = %24
  %39 = load ptr, ptr %5, align 8
  %40 = load i32, ptr %6, align 4
  %41 = load i32, ptr %7, align 4
  %42 = load i32, ptr %8, align 4
  call void (ptr, ...) @qemu_log(ptr noundef @.str.185, ptr noundef %39, i32 noundef %40, i32 noundef %41, i32 noundef %42)
  br label %43

43:                                               ; preds = %38, %27
  br label %44

44:                                               ; preds = %43, %22, %18, %4
  ret void
}

; Function Attrs: inlinehint nounwind sspstrong uwtable
define internal void @_nocheck__trace_ahci_dma_prepare_buf_fail(ptr noundef %0, i32 noundef %1) #7 {
  %3 = alloca ptr, align 8
  %4 = alloca i32, align 4
  %5 = alloca %struct.timeval, align 8
  store ptr %0, ptr %3, align 8
  store i32 %1, ptr %4, align 4
  %6 = load i32, ptr @trace_events_enabled_count, align 4
  %7 = icmp ne i32 %6, 0
  %8 = xor i1 %7, true
  %9 = xor i1 %8, true
  %10 = zext i1 %9 to i32
  %11 = sext i32 %10 to i64
  %12 = call i64 @llvm.expect.i64(i64 %11, i64 0)
  %13 = icmp ne i64 %12, 0
  br i1 %13, label %14, label %36

14:                                               ; preds = %2
  %15 = load i16, ptr @_TRACE_AHCI_DMA_PREPARE_BUF_FAIL_DSTATE, align 2
  %16 = zext i16 %15 to i32
  %17 = icmp ne i32 %16, 0
  br i1 %17, label %18, label %36

18:                                               ; preds = %14
  %19 = call zeroext i1 @qemu_loglevel_mask(i32 noundef 32768)
  br i1 %19, label %20, label %36

20:                                               ; preds = %18
  %21 = load i8, ptr @message_with_timestamp, align 1, !range !11, !noundef !12
  %22 = trunc i8 %21 to i1
  br i1 %22, label %23, label %32

23:                                               ; preds = %20
  call void @llvm.lifetime.start.p0(i64 16, ptr %5) #15
  call void @llvm.memset.p0.i64(ptr align 8 %5, i8 0, i64 16, i1 false), !annotation !4
  %24 = call i32 @gettimeofday(ptr noundef %5, ptr noundef null) #15
  %25 = call i32 @qemu_get_thread_id()
  %26 = getelementptr inbounds nuw %struct.timeval, ptr %5, i32 0, i32 0
  %27 = load i64, ptr %26, align 8
  %28 = getelementptr inbounds nuw %struct.timeval, ptr %5, i32 0, i32 1
  %29 = load i64, ptr %28, align 8
  %30 = load ptr, ptr %3, align 8
  %31 = load i32, ptr %4, align 4
  call void (ptr, ...) @qemu_log(ptr noundef @.str.182, i32 noundef %25, i64 noundef %27, i64 noundef %29, ptr noundef %30, i32 noundef %31)
  call void @llvm.lifetime.end.p0(i64 16, ptr %5) #15
  br label %35

32:                                               ; preds = %20
  %33 = load ptr, ptr %3, align 8
  %34 = load i32, ptr %4, align 4
  call void (ptr, ...) @qemu_log(ptr noundef @.str.183, ptr noundef %33, i32 noundef %34)
  br label %35

35:                                               ; preds = %32, %23
  br label %36

36:                                               ; preds = %35, %18, %14, %2
  ret void
}

; Function Attrs: inlinehint nounwind sspstrong uwtable
define internal void @trace_ahci_dma_prepare_buf(ptr noundef %0, i32 noundef %1, i32 noundef %2, i32 noundef %3) #7 {
  %5 = alloca ptr, align 8
  %6 = alloca i32, align 4
  %7 = alloca i32, align 4
  %8 = alloca i32, align 4
  store ptr %0, ptr %5, align 8
  store i32 %1, ptr %6, align 4
  store i32 %2, ptr %7, align 4
  store i32 %3, ptr %8, align 4
  %9 = load ptr, ptr %5, align 8
  %10 = load i32, ptr %6, align 4
  %11 = load i32, ptr %7, align 4
  %12 = load i32, ptr %8, align 4
  call void @_nocheck__trace_ahci_dma_prepare_buf(ptr noundef %9, i32 noundef %10, i32 noundef %11, i32 noundef %12)
  ret void
}

; Function Attrs: inlinehint nounwind sspstrong uwtable
define internal void @trace_ahci_dma_prepare_buf_fail(ptr noundef %0, i32 noundef %1) #7 {
  %3 = alloca ptr, align 8
  %4 = alloca i32, align 4
  store ptr %0, ptr %3, align 8
  store i32 %1, ptr %4, align 4
  %5 = load ptr, ptr %3, align 8
  %6 = load i32, ptr %4, align 4
  call void @_nocheck__trace_ahci_dma_prepare_buf_fail(ptr noundef %5, i32 noundef %6)
  ret void
}

; Function Attrs: nounwind sspstrong uwtable
define internal i32 @ahci_dma_prepare_buf(ptr noundef %0, i32 noundef %1) #0 {
  %3 = alloca i32, align 4
  %4 = alloca ptr, align 8
  %5 = alloca i32, align 4
  %6 = alloca ptr, align 8
  %7 = alloca ptr, align 8
  %8 = alloca ptr, align 8
  %9 = alloca ptr, align 8
  %10 = alloca ptr, align 8
  %11 = alloca i32, align 4
  store ptr %0, ptr %4, align 8
  store i32 %1, ptr %5, align 4
  call void @llvm.lifetime.start.p0(i64 8, ptr %6) #15
  call void @llvm.lifetime.start.p0(i64 8, ptr %8) #15
  %12 = load ptr, ptr %4, align 8
  store ptr %12, ptr %8, align 8
  %13 = load ptr, ptr %8, align 8
  %14 = getelementptr inbounds i8, ptr %13, i64 0
  store ptr %14, ptr %9, align 8
  call void @llvm.lifetime.end.p0(i64 8, ptr %8) #15
  %15 = load ptr, ptr %9, align 8
  store ptr %15, ptr %7, align 8
  %16 = load ptr, ptr %7, align 8
  store ptr %16, ptr %6, align 8
  call void @llvm.lifetime.start.p0(i64 8, ptr %10) #15
  %17 = load ptr, ptr %6, align 8
  %18 = getelementptr inbounds nuw %struct.AHCIDevice, ptr %17, i32 0, i32 1
  %19 = getelementptr inbounds nuw %struct.IDEBus, ptr %18, i32 0, i32 3
  %20 = getelementptr inbounds [2 x %struct.IDEState], ptr %19, i64 0, i64 0
  store ptr %20, ptr %10, align 8
  %21 = load ptr, ptr %6, align 8
  %22 = load ptr, ptr %10, align 8
  %23 = getelementptr inbounds nuw %struct.IDEState, ptr %22, i32 0, i32 54
  %24 = load ptr, ptr %6, align 8
  %25 = getelementptr inbounds nuw %struct.AHCIDevice, ptr %24, i32 0, i32 13
  %26 = load ptr, ptr %25, align 8
  %27 = load i32, ptr %5, align 4
  %28 = sext i32 %27 to i64
  %29 = load ptr, ptr %10, align 8
  %30 = getelementptr inbounds nuw %struct.IDEState, ptr %29, i32 0, i32 52
  %31 = load i64, ptr %30, align 8
  %32 = call i32 @ahci_populate_sglist(ptr noundef %21, ptr noundef %23, ptr noundef %26, i64 noundef %28, i64 noundef %31)
  %33 = icmp eq i32 %32, -1
  br i1 %33, label %34, label %41

34:                                               ; preds = %2
  %35 = load ptr, ptr %6, align 8
  %36 = getelementptr inbounds nuw %struct.AHCIDevice, ptr %35, i32 0, i32 6
  %37 = load ptr, ptr %36, align 8
  %38 = load ptr, ptr %6, align 8
  %39 = getelementptr inbounds nuw %struct.AHCIDevice, ptr %38, i32 0, i32 2
  %40 = load i32, ptr %39, align 8
  call void @trace_ahci_dma_prepare_buf_fail(ptr noundef %37, i32 noundef %40)
  store i32 -1, ptr %3, align 4
  store i32 1, ptr %11, align 4
  br label %62

41:                                               ; preds = %2
  %42 = load ptr, ptr %10, align 8
  %43 = getelementptr inbounds nuw %struct.IDEState, ptr %42, i32 0, i32 54
  %44 = getelementptr inbounds nuw %struct.QEMUSGList, ptr %43, i32 0, i32 3
  %45 = load i64, ptr %44, align 8
  %46 = trunc i64 %45 to i32
  %47 = load ptr, ptr %10, align 8
  %48 = getelementptr inbounds nuw %struct.IDEState, ptr %47, i32 0, i32 53
  store i32 %46, ptr %48, align 8
  %49 = load ptr, ptr %6, align 8
  %50 = getelementptr inbounds nuw %struct.AHCIDevice, ptr %49, i32 0, i32 6
  %51 = load ptr, ptr %50, align 8
  %52 = load ptr, ptr %6, align 8
  %53 = getelementptr inbounds nuw %struct.AHCIDevice, ptr %52, i32 0, i32 2
  %54 = load i32, ptr %53, align 8
  %55 = load i32, ptr %5, align 4
  %56 = load ptr, ptr %10, align 8
  %57 = getelementptr inbounds nuw %struct.IDEState, ptr %56, i32 0, i32 53
  %58 = load i32, ptr %57, align 8
  call void @trace_ahci_dma_prepare_buf(ptr noundef %51, i32 noundef %54, i32 noundef %55, i32 noundef %58)
  %59 = load ptr, ptr %10, align 8
  %60 = getelementptr inbounds nuw %struct.IDEState, ptr %59, i32 0, i32 53
  %61 = load i32, ptr %60, align 8
  store i32 %61, ptr %3, align 4
  store i32 1, ptr %11, align 4
  br label %62

62:                                               ; preds = %41, %34
  call void @llvm.lifetime.end.p0(i64 8, ptr %10) #15
  call void @llvm.lifetime.end.p0(i64 8, ptr %6) #15
  %63 = load i32, ptr %3, align 4
  ret i32 %63
}