; Function Attrs: nounwind sspstrong uwtable
define internal i32 @ahci_dma_prepare_buf(ptr noundef %0, i32 noundef %1) #0 {
  %3 = alloca %struct.timeval, align 8
  %4 = alloca %struct.timeval, align 8
  %5 = getelementptr inbounds nuw i8, ptr %0, i64 1008
  %6 = getelementptr inbounds nuw i8, ptr %0, i64 2488
  %7 = load ptr, ptr %6, align 8
  %8 = sext i32 %1 to i64
  %9 = getelementptr inbounds nuw i8, ptr %0, i64 992
  %10 = load i64, ptr %9, align 8
  %11 = tail call fastcc i32 @ahci_populate_sglist(ptr noundef %0, ptr noundef nonnull %5, ptr noundef %7, i64 noundef %8, i64 noundef %10)
  %12 = icmp eq i32 %11, -1
  br i1 %12, label %13, label %34

13:                                               ; preds = %2
  %14 = getelementptr inbounds nuw i8, ptr %0, i64 2440
  %15 = load ptr, ptr %14, align 8
  %16 = getelementptr inbounds nuw i8, ptr %0, i64 2360
  %17 = load i32, ptr %16, align 8
  %18 = load i32, ptr @trace_events_enabled_count, align 4
  %.not.i.i = icmp eq i32 %18, 0
  br i1 %.not.i.i, label %trace_ahci_dma_prepare_buf_fail.exit, label %19, !prof !7

19:                                               ; preds = %13
  %20 = load i16, ptr @_TRACE_AHCI_DMA_PREPARE_BUF_FAIL_DSTATE, align 2
  %.not3.i.i = icmp eq i16 %20, 0
  br i1 %.not3.i.i, label %trace_ahci_dma_prepare_buf_fail.exit, label %21

21:                                               ; preds = %19
  %22 = load i32, ptr @qemu_loglevel, align 4
  %23 = and i32 %22, 32768
  %.not4.i.i = icmp eq i32 %23, 0
  br i1 %.not4.i.i, label %trace_ahci_dma_prepare_buf_fail.exit, label %24

24:                                               ; preds = %21
  %25 = load i8, ptr @message_with_timestamp, align 1, !range !9, !noundef !10
  %26 = trunc nuw i8 %25 to i1
  br i1 %26, label %27, label %33

27:                                               ; preds = %24
  call void @llvm.lifetime.start.p0(i64 16, ptr nonnull %4) #14
  call void @llvm.memset.p0.i64(ptr noundef nonnull align 8 dereferenceable(16) %4, i8 0, i64 16, i1 false), !annotation !11
  %28 = call i32 @gettimeofday(ptr noundef nonnull %4, ptr noundef null) #14
  %29 = tail call i32 @qemu_get_thread_id() #14
  %30 = load i64, ptr %4, align 8
  %31 = getelementptr inbounds nuw i8, ptr %4, i64 8
  %32 = load i64, ptr %31, align 8
  tail call void (ptr, ...) @qemu_log(ptr noundef nonnull @.str.182, i32 noundef %29, i64 noundef %30, i64 noundef %32, ptr noundef %15, i32 noundef %17) #14
  call void @llvm.lifetime.end.p0(i64 16, ptr nonnull %4) #14
  br label %trace_ahci_dma_prepare_buf_fail.exit

33:                                               ; preds = %24
  tail call void (ptr, ...) @qemu_log(ptr noundef nonnull @.str.183, ptr noundef %15, i32 noundef %17) #14
  br label %trace_ahci_dma_prepare_buf_fail.exit

34:                                               ; preds = %2
  %35 = getelementptr inbounds nuw i8, ptr %0, i64 1024
  %36 = load i64, ptr %35, align 8
  %37 = trunc i64 %36 to i32
  %38 = getelementptr inbounds nuw i8, ptr %0, i64 1000
  store i32 %37, ptr %38, align 8
  %39 = getelementptr inbounds nuw i8, ptr %0, i64 2440
  %40 = load ptr, ptr %39, align 8
  %41 = getelementptr inbounds nuw i8, ptr %0, i64 2360
  %42 = load i32, ptr %41, align 8
  %43 = load i32, ptr @trace_events_enabled_count, align 4
  %.not.i.i19 = icmp eq i32 %43, 0
  br i1 %.not.i.i19, label %trace_ahci_dma_prepare_buf.exit, label %44, !prof !7

44:                                               ; preds = %34
  %45 = load i16, ptr @_TRACE_AHCI_DMA_PREPARE_BUF_DSTATE, align 2
  %.not7.i.i = icmp eq i16 %45, 0
  br i1 %.not7.i.i, label %trace_ahci_dma_prepare_buf.exit, label %46

46:                                               ; preds = %44
  %47 = load i32, ptr @qemu_loglevel, align 4
  %48 = and i32 %47, 32768
  %.not8.i.i = icmp eq i32 %48, 0
  br i1 %.not8.i.i, label %trace_ahci_dma_prepare_buf.exit, label %49

49:                                               ; preds = %46
  %50 = load i8, ptr @message_with_timestamp, align 1, !range !9, !noundef !10
  %51 = trunc nuw i8 %50 to i1
  br i1 %51, label %52, label %58

52:                                               ; preds = %49
  call void @llvm.lifetime.start.p0(i64 16, ptr nonnull %3) #14
  call void @llvm.memset.p0.i64(ptr noundef nonnull align 8 dereferenceable(16) %3, i8 0, i64 16, i1 false), !annotation !11
  %53 = call i32 @gettimeofday(ptr noundef nonnull %3, ptr noundef null) #14
  %54 = tail call i32 @qemu_get_thread_id() #14
  %55 = load i64, ptr %3, align 8
  %56 = getelementptr inbounds nuw i8, ptr %3, i64 8
  %57 = load i64, ptr %56, align 8
  tail call void (ptr, ...) @qemu_log(ptr noundef nonnull @.str.184, i32 noundef %54, i64 noundef %55, i64 noundef %57, ptr noundef %40, i32 noundef %42, i32 noundef %1, i32 noundef %37) #14
  call void @llvm.lifetime.end.p0(i64 16, ptr nonnull %3) #14
  br label %trace_ahci_dma_prepare_buf.exit

58:                                               ; preds = %49
  tail call void (ptr, ...) @qemu_log(ptr noundef nonnull @.str.185, ptr noundef %40, i32 noundef %42, i32 noundef %1, i32 noundef %37) #14
  br label %trace_ahci_dma_prepare_buf.exit

trace_ahci_dma_prepare_buf.exit:                  ; preds = %34, %44, %46, %52, %58
  %59 = load i32, ptr %38, align 8
  br label %trace_ahci_dma_prepare_buf_fail.exit

trace_ahci_dma_prepare_buf_fail.exit:             ; preds = %33, %27, %21, %19, %13, %trace_ahci_dma_prepare_buf.exit
  %.0 = phi i32 [ %59, %trace_ahci_dma_prepare_buf.exit ], [ -1, %13 ], [ -1, %19 ], [ -1, %21 ], [ -1, %27 ], [ -1, %33 ]
  ret i32 %.0
}